(lp0
(lp1
(lp2
S'desert'
p3
aI0
aI0
aa(lp4
g3
aI0
aI0
aa(lp5
g3
aS'desert_mountain'
p6
aI0
aa(lp7
g3
ag6
aI0
aa(lp8
g3
aI0
aI0
aaa(lp9
(lp10
g3
aI0
aI0
aa(lp11
g3
ag6
aS'hunter-gatherers'
p12
aa(lp13
g3
ag6
aI0
aa(lp14
g3
ag6
aI0
aa(lp15
g3
ag6
aI0
aaa(lp16
(lp17
g3
aI0
aI0
aa(lp18
g3
aI0
aI0
aa(lp19
g3
aI0
aI0
aa(lp20
g3
ag6
aI0
aa(lp21
g3
ag6
aI0
aaa(lp22
(lp23
g3
aI0
aI0
aa(lp24
g3
aI0
aI0
aa(lp25
g3
aI0
aI0
aa(lp26
g3
aI0
ag12
aa(lp27
g3
aI0
aI0
aaa(lp28
(lp29
g3
aI0
aI0
aa(lp30
g3
aI0
aI0
aa(lp31
g3
aI0
aI0
aa(lp32
g3
aI0
aI0
aa(lp33
g3
aI0
aI0
aaa(lp34
(lp35
g3
ag6
aI0
aa(lp36
g3
ag6
ag12
aa(lp37
g3
aI0
aI0
aa(lp38
g3
aI0
aI0
aa(lp39
g3
aI0
aI0
aaa.