(dp0
S'map'
p1
(lp2
(lp3
(lp4
S'desert'
p5
aS'desert_mountain'
p6
aI0
aa(lp7
g5
aI0
aI0
aa(lp8
g5
aI0
aI0
aa(lp9
g5
aI0
aI0
aa(lp10
g5
aI0
aI0
aa(lp11
g5
aI0
aI0
aa(lp12
g5
aI0
aI0
aa(lp13
S'water'
p14
aI0
aI0
aaa(lp15
(lp16
g5
ag6
aI0
aa(lp17
g5
ag6
aI0
aa(lp18
g5
ag6
aI0
aa(lp19
g5
aI0
aI0
aa(lp20
g5
aI0
aI0
aa(lp21
g5
aI0
aI0
aa(lp22
g14
aI0
aI0
aa(lp23
g14
aI0
aI0
aaa(lp24
(lp25
g5
ag6
aI0
aa(lp26
g5
ag6
aI0
aa(lp27
g5
ag6
aI0
aa(lp28
g5
ag6
aI0
aa(lp29
g5
aI0
aI0
aa(lp30
g5
aI0
aI0
aa(lp31
g14
aI0
aI0
aa(lp32
g14
aI0
aI0
aaa(lp33
(lp34
g5
ag6
aI0
aa(lp35
g5
aI0
aI0
aa(lp36
g5
aI0
aI0
aa(lp37
g5
aI0
aI0
aa(lp38
g5
aI0
aI0
aa(lp39
g5
aI0
aI0
aa(lp40
g14
aI0
aI0
aa(lp41
g14
aI0
aI0
aaa(lp42
(lp43
g5
aI0
aI0
aa(lp44
g5
aI0
aI0
aa(lp45
g5
aI0
aI0
aa(lp46
g5
aI0
aI0
aa(lp47
g5
aI0
aI0
aa(lp48
g5
aI0
aI0
aa(lp49
g14
aI0
aI0
aa(lp50
g14
aI0
aI0
aaa(lp51
(lp52
g5
aI0
aI0
aa(lp53
g5
aI0
aI0
aa(lp54
g5
aI0
aI0
aa(lp55
g5
aI0
aI0
aa(lp56
g5
aI0
aI0
aa(lp57
g14
aI0
aI0
aa(lp58
g14
aI0
aI0
aa(lp59
g14
aI0
aI0
aaa(lp60
(lp61
g5
ag6
aI0
aa(lp62
g5
aI0
aI0
aa(lp63
g5
aI0
aI0
aa(lp64
g5
aI0
aI0
aa(lp65
g5
aI0
aI0
aa(lp66
g5
aI0
aI0
aa(lp67
g14
aI0
aI0
aa(lp68
g14
aI0
aI0
aaa(lp69
(lp70
g5
ag6
aI0
aa(lp71
g5
ag6
aI0
aa(lp72
g5
ag6
aI0
aa(lp73
g5
aI0
aI0
aa(lp74
g5
aI0
aI0
aa(lp75
g5
aI0
aI0
aa(lp76
g5
aI0
aI0
aa(lp77
g14
aI0
aI0
aaasS'blocking_cells'
p78
(lp79
(lp80
I0
aI0
aI0
aI0
aI0
aI0
aI0
aI1
aa(lp81
I0
aI0
aI0
aI0
aI0
aI0
aI1
aI1
aa(lp82
I0
aI0
aI0
aI0
aI0
aI0
aI1
aI1
aa(lp83
I0
aI0
aI0
aI0
aI0
aI0
aI1
aI1
aa(lp84
I0
aI0
aI0
aI0
aI0
aI0
aI1
aI1
aa(lp85
I0
aI0
aI0
aI0
aI0
aI1
aI1
aI1
aa(lp86
I0
aI0
aI0
aI0
aI0
aI0
aI1
aI1
aa(lp87
I0
aI0
aI0
aI0
aI0
aI0
aI0
aI1
aas.