(dp0
S'map'
p1
(lp2
(lp3
(lp4
S'desert'
p5
aI0
aI0
aa(lp6
g5
aI0
aI0
aa(lp7
g5
aI0
aI0
aa(lp8
g5
aI0
aI0
aa(lp9
g5
aI0
aI0
aa(lp10
g5
aI0
aI0
aa(lp11
g5
aI0
aI0
aa(lp12
S'water'
p13
aI0
aI0
aa(lp14
g13
aI0
aI0
aa(lp15
g13
aI0
aI0
aaa(lp16
(lp17
g5
aI0
aI0
aa(lp18
g5
aI0
aI0
aa(lp19
g5
aI0
aI0
aa(lp20
g5
aI0
aI0
aa(lp21
g5
aI0
aI0
aa(lp22
g5
aI0
aI0
aa(lp23
g13
aI0
aI0
aa(lp24
g13
aI0
aI0
aa(lp25
g13
aI0
aI0
aa(lp26
g13
aI0
aI0
aaa(lp27
(lp28
g5
aI0
aI0
aa(lp29
g5
aI0
aI0
aa(lp30
g5
aI0
aI0
aa(lp31
g5
aI0
aI0
aa(lp32
g5
aI0
aI0
aa(lp33
g5
aI0
aI0
aa(lp34
g13
aI0
aI0
aa(lp35
g13
aI0
aI0
aa(lp36
g13
aI0
aI0
aa(lp37
g13
aI0
aI0
aaa(lp38
(lp39
g5
aI0
aI0
aa(lp40
g5
aI0
aI0
aa(lp41
g5
aI0
aI0
aa(lp42
g5
aI0
aI0
aa(lp43
g5
aI0
aI0
aa(lp44
g5
aI0
aI0
aa(lp45
g13
aI0
aI0
aa(lp46
g13
aI0
aI0
aa(lp47
g13
aI0
aI0
aa(lp48
g13
aI0
aI0
aaa(lp49
(lp50
g5
aI0
aI0
aa(lp51
g5
aI0
aI0
aa(lp52
g5
aI0
aI0
aa(lp53
g5
aI0
aI0
aa(lp54
g5
aI0
aI0
aa(lp55
g5
aI0
aI0
aa(lp56
g13
aI0
aI0
aa(lp57
g13
aI0
aI0
aa(lp58
g13
aI0
aI0
aa(lp59
g13
aI0
aI0
aaa(lp60
(lp61
g5
aI0
aI0
aa(lp62
g5
aI0
aI0
aa(lp63
g5
aI0
aI0
aa(lp64
g5
aI0
aI0
aa(lp65
g5
aI0
aI0
aa(lp66
g5
aI0
aI0
aa(lp67
g5
aI0
aI0
aa(lp68
g13
aI0
aI0
aa(lp69
g13
aI0
aI0
aa(lp70
g13
aI0
aI0
aaa(lp71
(lp72
g5
aI0
aI0
aa(lp73
g5
aI0
aI0
aa(lp74
g5
aI0
aI0
aa(lp75
g5
aI0
aI0
aa(lp76
g5
aI0
aI0
aa(lp77
g5
aI0
aI0
aa(lp78
g5
aI0
aI0
aa(lp79
g13
aI0
aI0
aa(lp80
g13
aI0
aI0
aa(lp81
g13
aI0
aI0
aaa(lp82
(lp83
g5
aI0
aI0
aa(lp84
g5
aI0
aI0
aa(lp85
g5
aI0
aI0
aa(lp86
g5
aI0
aI0
aa(lp87
g5
aI0
aI0
aa(lp88
g5
aI0
aI0
aa(lp89
g5
aI0
aI0
aa(lp90
g13
aI0
aI0
aa(lp91
g13
aI0
aI0
aa(lp92
g13
aI0
aI0
aaa(lp93
(lp94
g5
aI0
aI0
aa(lp95
g5
aI0
aI0
aa(lp96
g5
aI0
aI0
aa(lp97
g5
aI0
aI0
aa(lp98
g5
aI0
aI0
aa(lp99
g5
aI0
aI0
aa(lp100
g5
aI0
aI0
aa(lp101
g5
aI0
aI0
aa(lp102
g13
aI0
aI0
aa(lp103
g13
aI0
aI0
aaa(lp104
(lp105
g13
aI0
aI0
aa(lp106
g13
aI0
aI0
aa(lp107
g13
aI0
aI0
aa(lp108
g13
aI0
aI0
aa(lp109
g5
aI0
aI0
aa(lp110
g5
aI0
aI0
aa(lp111
g5
aI0
aI0
aa(lp112
g5
aI0
aI0
aa(lp113
g13
aI0
aI0
aa(lp114
g13
aI0
aI0
aaa(lp115
(lp116
g13
aI0
aI0
aa(lp117
g13
aI0
aI0
aa(lp118
g13
aI0
aI0
aa(lp119
g13
aI0
aI0
aa(lp120
g5
aI0
aI0
aa(lp121
g5
aI0
aI0
aa(lp122
g5
aI0
aI0
aa(lp123
g5
aI0
aI0
aa(lp124
g13
aI0
aI0
aa(lp125
g13
aI0
aI0
aaa(lp126
(lp127
g13
aI0
aI0
aa(lp128
g13
aI0
aI0
aa(lp129
g13
aI0
aI0
aa(lp130
g13
aI0
aI0
aa(lp131
g13
aI0
aI0
aa(lp132
g5
aI0
aI0
aa(lp133
g5
aI0
aI0
aa(lp134
g5
aI0
aI0
aa(lp135
g13
aI0
aI0
aa(lp136
g13
aI0
aI0
aaasS'blocking_cells'
p137
(lp138
(lp139
I0
aI0
aI0
aI0
aI0
aI0
aI0
aI1
aI1
aI1
aa(lp140
I0
aI0
aI0
aI0
aI0
aI0
aI1
aI1
aI1
aI1
aa(lp141
I0
aI0
aI0
aI0
aI0
aI0
aI1
aI1
aI1
aI1
aa(lp142
I0
aI0
aI0
aI0
aI0
aI0
aI1
aI1
aI1
aI1
aa(lp143
I0
aI0
aI0
aI0
aI0
aI0
aI1
aI1
aI1
aI1
aa(lp144
I0
aI0
aI0
aI0
aI0
aI0
aI0
aI1
aI1
aI1
aa(lp145
I0
aI0
aI0
aI0
aI0
aI0
aI0
aI1
aI1
aI1
aa(lp146
I0
aI0
aI0
aI0
aI0
aI0
aI0
aI1
aI1
aI1
aa(lp147
I0
aI0
aI0
aI0
aI0
aI0
aI0
aI0
aI1
aI1
aa(lp148
I1
aI1
aI1
aI1
aI0
aI0
aI0
aI0
aI1
aI1
aa(lp149
I1
aI1
aI1
aI1
aI0
aI0
aI0
aI0
aI1
aI1
aa(lp150
I1
aI1
aI1
aI1
aI1
aI0
aI0
aI0
aI1
aI1
aas.