(lp0
(lp1
(lp2
S'desert'
p3
aI0
aS'hunter-gatherers'
p4
aa(lp5
g3
aI0
aI0
aa(lp6
g3
aI0
aI0
aa(lp7
g3
aS'village'
p8
aI0
aa(lp9
g3
aI0
aI0
aaa(lp10
(lp11
g3
aI0
aI0
aa(lp12
g3
aI0
aI0
aa(lp13
g3
aI0
aI0
aa(lp14
g3
aI0
aI0
aa(lp15
g3
aI0
aI0
aaa(lp16
(lp17
g3
aI0
aI0
aa(lp18
g3
aI0
aI0
aa(lp19
g3
aI0
aI0
aa(lp20
g3
aI0
ag4
aa(lp21
g3
aI0
aI0
aaa(lp22
(lp23
g3
aI0
aI0
aa(lp24
g3
ag8
ag4
aa(lp25
g3
aI0
aI0
aa(lp26
g3
aI0
aI0
aa(lp27
g3
aI0
aI0
aaa(lp28
(lp29
g3
aI0
aI0
aa(lp30
g3
aI0
aI0
aa(lp31
g3
aI0
aI0
aa(lp32
g3
aI0
aI0
aa(lp33
g3
aI0
aI0
aaa.